target datalayout = "e-m:e-p270:32:32-p271:32:32-p272:64:64-i64:64-i128:128-f80:128-n8:16:32:64-S128"
target triple = "x86_64-unknown-linux-gnu"

%"class.Imf_3_2::Attribute" = type { ptr }
%"class.Imf_3_2::TypedAttribute.2" = type { %"class.Imf_3_2::Attribute", %"class.Imath_3_2::Vec2.3" }
%"class.Imath_3_2::Vec2.3" = type { double, double }
%union.anon.13 = type { i64 }

; Function Attrs: mustprogress uwtable
define linkonce_odr hidden noundef zeroext i1 @_ZN7Imf_3_28StreamIO9readCharsERNS_7IStreamEPci(ptr noundef nonnull align 8 dereferenceable(40) %is, ptr noundef %c, i32 noundef %n) #4 comdat align 2 {
entry:
  %is.addr = alloca ptr, align 8
  %c.addr = alloca ptr, align 8
  %n.addr = alloca i32, align 4
  store ptr %is, ptr %is.addr, align 8
  store ptr %c, ptr %c.addr, align 8
  store i32 %n, ptr %n.addr, align 4
  %0 = load ptr, ptr %is.addr, align 8
  %1 = load ptr, ptr %c.addr, align 8
  %2 = load i32, ptr %n.addr, align 4
  %vtable = load ptr, ptr %0, align 8
  %vfn = getelementptr inbounds ptr, ptr %vtable, i64 3
  %3 = load ptr, ptr %vfn, align 8
  %call = call noundef zeroext i1 %3(ptr noundef nonnull align 8 dereferenceable(40) %0, ptr noundef %1, i32 noundef %2)
  ret i1 %call
}

; Function Attrs: mustprogress uwtable
define linkonce_odr hidden void @_ZN7Imf_3_23Xdr17readUnsignedCharsINS_8StreamIOENS_7IStreamEEEvRT0_Phi(ptr noundef nonnull align 8 dereferenceable(40) %in, ptr noundef %c, i32 noundef %n) #4 comdat {
entry:
  %in.addr = alloca ptr, align 8
  %c.addr = alloca ptr, align 8
  %n.addr = alloca i32, align 4
  store ptr %in, ptr %in.addr, align 8
  store ptr %c, ptr %c.addr, align 8
  store i32 %n, ptr %n.addr, align 4
  %0 = load ptr, ptr %in.addr, align 8
  %1 = load ptr, ptr %c.addr, align 8
  %2 = load i32, ptr %n.addr, align 4
  %call = call noundef zeroext i1 @_ZN7Imf_3_28StreamIO9readCharsERNS_7IStreamEPci(ptr noundef nonnull align 8 dereferenceable(40) %0, ptr noundef %1, i32 noundef %2)
  ret void
}

; Function Attrs: mustprogress uwtable
define linkonce_odr hidden void @_ZN7Imf_3_23Xdr4readINS_8StreamIOENS_7IStreamEEEvRT0_Rd(ptr noundef nonnull align 8 dereferenceable(40) %in, ptr noundef nonnull align 8 dereferenceable(8) %v) #4 comdat {
entry:
  %in.addr = alloca ptr, align 8
  %v.addr = alloca ptr, align 8
  %b = alloca [8 x i8], align 1
  %u = alloca %union.anon.13, align 8
  store ptr %in, ptr %in.addr, align 8
  store ptr %v, ptr %v.addr, align 8
  %0 = load ptr, ptr %in.addr, align 8
  %arraydecay = getelementptr inbounds [8 x i8], ptr %b, i64 0, i64 0
  call void @_ZN7Imf_3_23Xdr17readUnsignedCharsINS_8StreamIOENS_7IStreamEEEvRT0_Phi(ptr noundef nonnull align 8 dereferenceable(40) %0, ptr noundef %arraydecay, i32 noundef 8)
  %arrayidx = getelementptr inbounds [8 x i8], ptr %b, i64 0, i64 0
  %1 = load i8, ptr %arrayidx, align 1
  %conv = zext i8 %1 to i64
  %and = and i64 %conv, 255
  %arrayidx1 = getelementptr inbounds [8 x i8], ptr %b, i64 0, i64 1
  %2 = load i8, ptr %arrayidx1, align 1
  %conv2 = zext i8 %2 to i64
  %shl = shl i64 %conv2, 8
  %and3 = and i64 %shl, 65280
  %or = or i64 %and, %and3
  %arrayidx4 = getelementptr inbounds [8 x i8], ptr %b, i64 0, i64 2
  %3 = load i8, ptr %arrayidx4, align 1
  %conv5 = zext i8 %3 to i64
  %shl6 = shl i64 %conv5, 16
  %and7 = and i64 %shl6, 16711680
  %or8 = or i64 %or, %and7
  %arrayidx9 = getelementptr inbounds [8 x i8], ptr %b, i64 0, i64 3
  %4 = load i8, ptr %arrayidx9, align 1
  %conv10 = zext i8 %4 to i64
  %shl11 = shl i64 %conv10, 24
  %and12 = and i64 %shl11, 4278190080
  %or13 = or i64 %or8, %and12
  %arrayidx14 = getelementptr inbounds [8 x i8], ptr %b, i64 0, i64 4
  %5 = load i8, ptr %arrayidx14, align 1
  %conv15 = zext i8 %5 to i64
  %shl16 = shl i64 %conv15, 32
  %and17 = and i64 %shl16, 1095216660480
  %or18 = or i64 %or13, %and17
  %arrayidx19 = getelementptr inbounds [8 x i8], ptr %b, i64 0, i64 5
  %6 = load i8, ptr %arrayidx19, align 1
  %conv20 = zext i8 %6 to i64
  %shl21 = shl i64 %conv20, 40
  %and22 = and i64 %shl21, 280375465082880
  %or23 = or i64 %or18, %and22
  %arrayidx24 = getelementptr inbounds [8 x i8], ptr %b, i64 0, i64 6
  %7 = load i8, ptr %arrayidx24, align 1
  %conv25 = zext i8 %7 to i64
  %shl26 = shl i64 %conv25, 48
  %and27 = and i64 %shl26, 71776119061217280
  %or28 = or i64 %or23, %and27
  %arrayidx29 = getelementptr inbounds [8 x i8], ptr %b, i64 0, i64 7
  %8 = load i8, ptr %arrayidx29, align 1
  %conv30 = zext i8 %8 to i64
  %shl31 = shl i64 %conv30, 56
  %or32 = or i64 %or28, %shl31
  store i64 %or32, ptr %u, align 8
  %9 = load double, ptr %u, align 8
  %10 = load ptr, ptr %v.addr, align 8
  store double %9, ptr %10, align 8
  ret void
}

; Function Attrs: mustprogress uwtable
define void @_ZN7Imf_3_214TypedAttributeIN9Imath_3_24Vec2IdEEE13readValueFromERNS_7IStreamEii(ptr noundef nonnull align 8 dereferenceable(24) %this, ptr noundef nonnull align 8 dereferenceable(40) %is, i32 noundef %size, i32 noundef %version) unnamed_addr #4 align 2 {
entry:
  %this.addr = alloca ptr, align 8
  %is.addr = alloca ptr, align 8
  %size.addr = alloca i32, align 4
  %version.addr = alloca i32, align 4
  store ptr %this, ptr %this.addr, align 8
  store ptr %is, ptr %is.addr, align 8
  store i32 %size, ptr %size.addr, align 4
  store i32 %version, ptr %version.addr, align 4
  %this1 = load ptr, ptr %this.addr, align 8
  %0 = load ptr, ptr %is.addr, align 8
  %_value = getelementptr inbounds %"class.Imf_3_2::TypedAttribute.2", ptr %this1, i32 0, i32 1
  %x = getelementptr inbounds %"class.Imath_3_2::Vec2.3", ptr %_value, i32 0, i32 0
  call void @_ZN7Imf_3_23Xdr4readINS_8StreamIOENS_7IStreamEEEvRT0_Rd(ptr noundef nonnull align 8 dereferenceable(40) %0, ptr noundef nonnull align 8 dereferenceable(8) %x)
  %1 = load ptr, ptr %is.addr, align 8
  %_value2 = getelementptr inbounds %"class.Imf_3_2::TypedAttribute.2", ptr %this1, i32 0, i32 1
  %y = getelementptr inbounds %"class.Imath_3_2::Vec2.3", ptr %_value2, i32 0, i32 1
  call void @_ZN7Imf_3_23Xdr4readINS_8StreamIOENS_7IStreamEEEvRT0_Rd(ptr noundef nonnull align 8 dereferenceable(40) %1, ptr noundef nonnull align 8 dereferenceable(8) %y)
  ret void
}